target datalayout = "e-m:e-p270:32:32-p271:32:32-p272:64:64-i64:64-i128:128-f80:128-n8:16:32:64-S128"
target triple = "x86_64-pc-linux-gnu"

%union.pthread_mutex_t = type { %struct.__pthread_mutex_s }
%struct.__pthread_mutex_s = type { i32, i32, i32, i32, i32, i16, i16, %struct.__pthread_internal_list }
%struct.__pthread_internal_list = type { ptr, ptr }
%struct.forward_struct = type { ptr, ptr, i32, i16, %union.pthread_mutex_t, %union.pthread_cond_t, ptr, i32 }
%union.pthread_cond_t = type { %struct.__pthread_cond_s }
%struct.__pthread_cond_s = type { %union.__atomic_wide_counter, %union.__atomic_wide_counter, [2 x i32], [2 x i32], i32, i32, [2 x i32] }
%union.__atomic_wide_counter = type { i64 }

@.str.2 = private unnamed_addr constant [10 x i8] c"forward.c\00", align 1
@.str.12 = private unnamed_addr constant [32 x i8] c"%s: pthread_mutex_destroy(): %m\00", align 1
@.str.13 = private unnamed_addr constant [37 x i8] c"%s:%d %s: pthread_cond_destroy(): %m\00", align 1
@__func__.destroy_forward_struct = private unnamed_addr constant [23 x i8] c"destroy_forward_struct\00", align 1

; Function Attrs: nounwind uwtable
define dso_local void @destroy_forward_struct(ptr noundef %0) #0 {
  %2 = alloca ptr, align 8
  %3 = alloca i32, align 4
  %4 = alloca i32, align 4
  store ptr %0, ptr %2, align 8
  %5 = load ptr, ptr %2, align 8
  %6 = icmp ne ptr %5, null
  br i1 %6, label %7, label %36

7:                                                ; preds = %1
  %8 = load ptr, ptr %2, align 8
  %9 = getelementptr inbounds nuw %struct.forward_struct, ptr %8, i32 0, i32 1
  call void @slurm_xfree(ptr noundef %9)
  br label %10

10:                                               ; preds = %7
  call void @llvm.lifetime.start.p0(i64 4, ptr %3) #8
  %11 = load ptr, ptr %2, align 8
  %12 = getelementptr inbounds nuw %struct.forward_struct, ptr %11, i32 0, i32 4
  %13 = call i32 @pthread_mutex_destroy(ptr noundef %12) #8
  store i32 %13, ptr %3, align 4
  %14 = load i32, ptr %3, align 4
  %15 = icmp ne i32 %14, 0
  br i1 %15, label %16, label %19

16:                                               ; preds = %10
  %17 = load i32, ptr %3, align 4
  %18 = call ptr @__errno_location() #9
  store i32 %17, ptr %18, align 4
  call void (ptr, ...) @fatal_abort(ptr noundef @.str.12, ptr noundef @__func__.destroy_forward_struct) #10
  unreachable

19:                                               ; preds = %10
  call void @llvm.lifetime.end.p0(i64 4, ptr %3) #8
  br label %20

20:                                               ; preds = %19
  br label %21

21:                                               ; preds = %20
  call void @llvm.lifetime.start.p0(i64 4, ptr %4) #8
  %22 = load ptr, ptr %2, align 8
  %23 = getelementptr inbounds nuw %struct.forward_struct, ptr %22, i32 0, i32 5
  %24 = call i32 @pthread_cond_destroy(ptr noundef %23) #8
  store i32 %24, ptr %4, align 4
  %25 = load i32, ptr %4, align 4
  %26 = icmp ne i32 %25, 0
  br i1 %26, label %27, label %31

27:                                               ; preds = %21
  %28 = load i32, ptr %4, align 4
  %29 = call ptr @__errno_location() #9
  store i32 %28, ptr %29, align 4
  %30 = call i32 (ptr, ...) @error(ptr noundef @.str.13, ptr noundef @.str.2, i32 noundef 964, ptr noundef @__func__.destroy_forward_struct)
  br label %31

31:                                               ; preds = %27, %21
  call void @llvm.lifetime.end.p0(i64 4, ptr %4) #8
  br label %32

32:                                               ; preds = %31
  %33 = load ptr, ptr %2, align 8
  %34 = getelementptr inbounds nuw %struct.forward_struct, ptr %33, i32 0, i32 0
  %35 = load ptr, ptr %34, align 8
  call void @slurm_free_node_alias_addrs(ptr noundef %35)
  call void @slurm_xfree(ptr noundef %2)
  br label %36

36:                                               ; preds = %32, %1
  ret void
}