; Function Attrs: nounwind uwtable
define dso_local void @destroy_forward_struct(ptr noundef %0) local_unnamed_addr #0 {
  %2 = alloca ptr, align 8
  store ptr %0, ptr %2, align 8
  %.not = icmp eq ptr %0, null
  br i1 %.not, label %17, label %3

3:                                                ; preds = %1
  %4 = getelementptr inbounds nuw i8, ptr %0, i64 8
  tail call void @slurm_xfree(ptr noundef nonnull %4) #10
  %5 = getelementptr inbounds nuw i8, ptr %0, i64 24
  %6 = tail call i32 @pthread_mutex_destroy(ptr noundef nonnull %5) #10
  %.not6 = icmp eq i32 %6, 0
  br i1 %.not6, label %9, label %7

7:                                                ; preds = %3
  %8 = tail call ptr @__errno_location() #11
  store i32 %6, ptr %8, align 4
  tail call void (ptr, ...) @fatal_abort(ptr noundef nonnull @.str.12, ptr noundef nonnull @__func__.destroy_forward_struct) #12
  unreachable

9:                                                ; preds = %3
  %10 = getelementptr inbounds nuw i8, ptr %0, i64 64
  %11 = tail call i32 @pthread_cond_destroy(ptr noundef nonnull %10) #10
  %.not7 = icmp eq i32 %11, 0
  br i1 %.not7, label %15, label %12

12:                                               ; preds = %9
  %13 = tail call ptr @__errno_location() #11
  store i32 %11, ptr %13, align 4
  %14 = tail call i32 (ptr, ...) @error(ptr noundef nonnull @.str.13, ptr noundef nonnull @.str.2, i32 noundef 964, ptr noundef nonnull @__func__.destroy_forward_struct) #10
  br label %15

15:                                               ; preds = %12, %9
  %16 = load ptr, ptr %0, align 8
  tail call void @slurm_free_node_alias_addrs(ptr noundef %16) #10
  call void @slurm_xfree(ptr noundef nonnull %2) #10
  br label %17

17:                                               ; preds = %15, %1
  ret void
}